; Function Attrs: nounwind sspstrong uwtable
define dso_local void @tcg_gen_lookup_and_goto_ptr() local_unnamed_addr #2 {
  %1 = tail call align 8 ptr @llvm.threadlocal.address.p0(ptr align 8 @tcg_ctx)
  %2 = load ptr, ptr %1, align 8
  %3 = getelementptr inbounds nuw i8, ptr %2, i64 112
  %4 = load ptr, ptr %3, align 8
  %5 = getelementptr inbounds nuw i8, ptr %4, i64 20
  %6 = load i32, ptr %5, align 4
  %7 = and i32 %6, 1024
  %.not = icmp eq i32 %7, 0
  br i1 %.not, label %10, label %8

8:                                                ; preds = %0
  %9 = tail call noundef ptr @tcg_gen_op1(i32 noundef 130, i32 noundef 0, i64 noundef 0)
  br label %23

10:                                               ; preds = %0
  tail call void @plugin_gen_disable_mem_helpers() #6
  %11 = tail call ptr @tcg_temp_ebb_new_ptr() #6
  %12 = load ptr, ptr @tcg_env, align 8
  %13 = load ptr, ptr @helper_info_lookup_tb_ptr, align 8
  %14 = load ptr, ptr %1, align 8
  %15 = ptrtoint ptr %11 to i64
  %16 = getelementptr inbounds nuw i8, ptr %14, i64 %15
  %17 = ptrtoint ptr %12 to i64
  %18 = getelementptr inbounds nuw i8, ptr %14, i64 %17
  tail call void @tcg_gen_call1(ptr noundef %13, ptr noundef nonnull @helper_info_lookup_tb_ptr, ptr noundef %16, ptr noundef %18) #6
  %19 = load ptr, ptr %1, align 8
  %20 = getelementptr inbounds nuw i8, ptr %19, i64 %15
  %21 = ptrtoint ptr %20 to i64
  %22 = tail call noundef ptr @tcg_gen_op1(i32 noundef 132, i32 noundef 1, i64 noundef %21)
  tail call void @tcg_temp_free_ptr(ptr noundef %11) #6
  br label %23

23:                                               ; preds = %10, %8
  ret void
}